target datalayout = "e-m:e-p270:32:32-p271:32:32-p272:64:64-i64:64-i128:128-f80:128-n8:16:32:64-S128"
target triple = "x86_64-pc-linux-gnu"

%struct.darktable_t = type { %struct.dt_codepath_t, i32, i32, ptr, ptr, ptr, ptr, ptr, ptr, ptr, ptr, ptr, ptr, ptr, ptr, ptr, ptr, ptr, ptr, ptr, ptr, ptr, ptr, ptr, ptr, ptr, ptr, ptr, ptr, ptr, [64 x %struct.dt_pthread_mutex_t], %struct.dt_pthread_mutex_t, %struct.dt_pthread_mutex_t, %struct.dt_pthread_mutex_t, %struct.dt_pthread_mutex_t, %struct.dt_pthread_mutex_t, ptr, ptr, ptr, ptr, ptr, ptr, ptr, ptr, ptr, ptr, ptr, ptr, ptr, %struct.dt_lua_state_t, ptr, double, ptr, i32, [47 x i32], i32, i32, ptr, ptr, %struct.dt_sys_resources_t, %struct.dt_backthumb_t, %struct.dt_gimp_t }
%struct.dt_codepath_t = type { i8, [3 x i8] }
%struct.dt_pthread_mutex_t = type { %union.pthread_mutex_t }
%union.pthread_mutex_t = type { %struct.__pthread_mutex_s }
%struct.__pthread_mutex_s = type { i32, i32, i32, i32, i32, i16, i16, %struct.__pthread_internal_list }
%struct.__pthread_internal_list = type { ptr, ptr }
%struct.dt_lua_state_t = type { i32 }
%struct.dt_sys_resources_t = type { i64, i64, ptr, ptr, i32 }
%struct.dt_backthumb_t = type { double, double, i32, i32, i32, i32 }
%struct.dt_gimp_t = type { i32, ptr, ptr, i32, i32 }

@darktable = external global %struct.darktable_t, align 8
@.str = private unnamed_addr constant [41 x i8] c"[sql] %s:%d, function %s(): prepare \22%s\22\00", align 1
@.str.1 = private unnamed_addr constant [127 x i8] c"generated/home/dtcxzyw/WorkSpace/Projects/compilers/llvm-opt-benchmark/bench/darktable/darktable/src/common/history_snapshot.c\00", align 1
@stderr = external global ptr, align 8
@.str.3 = private unnamed_addr constant [53 x i8] c"sqlite3 error: %s:%d, function %s(), query \22%s\22: %s\0A\00", align 1
@.str.4 = private unnamed_addr constant [41 x i8] c"sqlite3 error: %s:%d, function %s(): %s\0A\00", align 1
@__FUNCTION__.dt_history_snapshot_undo_create = private unnamed_addr constant [32 x i8] c"dt_history_snapshot_undo_create\00", align 1
@.str.9 = private unnamed_addr constant [59 x i8] c"SELECT MAX(id) FROM memory.snapshot_history WHERE imgid=?1\00", align 1
@.str.10 = private unnamed_addr constant [48 x i8] c"SELECT history_end FROM main.images WHERE id=?1\00", align 1

; Function Attrs: inlinehint nounwind uwtable
define internal i32 @dt_pthread_mutex_unlock(ptr noundef %0) #5 {
  %2 = alloca ptr, align 8
  store ptr %0, ptr %2, align 8, !tbaa !69
  %3 = load ptr, ptr %2, align 8, !tbaa !69
  %4 = getelementptr inbounds nuw %struct.dt_pthread_mutex_t, ptr %3, i32 0, i32 0
  %5 = call i32 @pthread_mutex_unlock(ptr noundef %4) #7
  ret i32 %5
}

; Function Attrs: inlinehint nounwind uwtable
define internal i32 @dt_pthread_mutex_lock(ptr noundef %0) #5 {
  %2 = alloca ptr, align 8
  store ptr %0, ptr %2, align 8, !tbaa !69
  %3 = load ptr, ptr %2, align 8, !tbaa !69
  %4 = getelementptr inbounds nuw %struct.dt_pthread_mutex_t, ptr %3, i32 0, i32 0
  %5 = call i32 @pthread_mutex_lock(ptr noundef %4) #7
  ret i32 %5
}

; Function Attrs: inlinehint nounwind uwtable
define internal void @dt_unlock_image(i32 noundef %0) #5 {
  %2 = alloca i32, align 4
  store i32 %0, ptr %2, align 4, !tbaa !6
  %3 = load i32, ptr %2, align 4, !tbaa !6
  %4 = and i32 %3, 63
  %5 = sext i32 %4 to i64
  %6 = getelementptr inbounds [64 x %struct.dt_pthread_mutex_t], ptr getelementptr inbounds nuw (%struct.darktable_t, ptr @darktable, i32 0, i32 30), i64 0, i64 %5
  %7 = call i32 @dt_pthread_mutex_unlock(ptr noundef %6)
  ret void
}

; Function Attrs: inlinehint nounwind uwtable
define internal void @dt_lock_image(i32 noundef %0) #5 {
  %2 = alloca i32, align 4
  store i32 %0, ptr %2, align 4, !tbaa !6
  %3 = load i32, ptr %2, align 4, !tbaa !6
  %4 = and i32 %3, 63
  %5 = sext i32 %4 to i64
  %6 = getelementptr inbounds [64 x %struct.dt_pthread_mutex_t], ptr getelementptr inbounds nuw (%struct.darktable_t, ptr @darktable, i32 0, i32 30), i64 0, i64 %5
  %7 = call i32 @dt_pthread_mutex_lock(ptr noundef %6)
  ret void
}

; Function Attrs: nounwind uwtable
define void @dt_history_snapshot_undo_create(i32 noundef %0, ptr noundef %1, ptr noundef %2) #0 {
  %4 = alloca i32, align 4
  %5 = alloca ptr, align 8
  %6 = alloca ptr, align 8
  %7 = alloca ptr, align 8
  %8 = alloca i32, align 4
  %9 = alloca i32, align 4
  %10 = alloca i32, align 4
  %11 = alloca i32, align 4
  store i32 %0, ptr %4, align 4, !tbaa !6
  store ptr %1, ptr %5, align 8, !tbaa !54
  store ptr %2, ptr %6, align 8, !tbaa !54
  call void @llvm.lifetime.start.p0(i64 8, ptr %7) #7
  %12 = load i32, ptr %4, align 4, !tbaa !6
  call void @dt_lock_image(i32 noundef %12)
  %13 = load ptr, ptr %5, align 8, !tbaa !54
  store i32 0, ptr %13, align 4, !tbaa !6
  br label %14

14:                                               ; preds = %3
  br label %15

15:                                               ; preds = %14
  %16 = load i32, ptr getelementptr inbounds nuw (%struct.darktable_t, ptr @darktable, i32 0, i32 2), align 8, !tbaa !49
  %17 = and i32 256, %16
  %18 = icmp ne i32 %17, 0
  br i1 %18, label %19, label %25

19:                                               ; preds = %15
  %20 = load i32, ptr getelementptr inbounds nuw (%struct.darktable_t, ptr @darktable, i32 0, i32 2), align 8, !tbaa !49
  %21 = xor i32 %20, -1
  %22 = and i32 0, %21
  %23 = icmp ne i32 %22, 0
  br i1 %23, label %25, label %24

24:                                               ; preds = %19
  call void (ptr, ...) @dt_print_ext(ptr noundef @.str, ptr noundef @.str.1, i32 noundef 133, ptr noundef @__FUNCTION__.dt_history_snapshot_undo_create, ptr noundef @.str.9)
  br label %25

25:                                               ; preds = %24, %19, %15
  br label %26

26:                                               ; preds = %25
  br label %27

27:                                               ; preds = %26
  call void @llvm.lifetime.start.p0(i64 4, ptr %8) #7
  %28 = load ptr, ptr getelementptr inbounds nuw (%struct.darktable_t, ptr @darktable, i32 0, i32 18), align 8, !tbaa !10
  %29 = call ptr @dt_database_get(ptr noundef %28)
  %30 = call i32 @sqlite3_prepare_v2(ptr noundef %29, ptr noundef @.str.9, i32 noundef -1, ptr noundef %7, ptr noundef null)
  store i32 %30, ptr %8, align 4, !tbaa !6
  %31 = load i32, ptr %8, align 4, !tbaa !6
  %32 = icmp ne i32 %31, 0
  br i1 %32, label %33, label %39

33:                                               ; preds = %27
  %34 = load ptr, ptr @stderr, align 8, !tbaa !50
  %35 = load ptr, ptr getelementptr inbounds nuw (%struct.darktable_t, ptr @darktable, i32 0, i32 18), align 8, !tbaa !10
  %36 = call ptr @dt_database_get(ptr noundef %35)
  %37 = call ptr @sqlite3_errmsg(ptr noundef %36)
  %38 = call i32 (ptr, ptr, ...) @fprintf(ptr noundef %34, ptr noundef @.str.3, ptr noundef @.str.1, i32 noundef 133, ptr noundef @__FUNCTION__.dt_history_snapshot_undo_create, ptr noundef @.str.9, ptr noundef %37) #7
  br label %39

39:                                               ; preds = %33, %27
  call void @llvm.lifetime.end.p0(i64 4, ptr %8) #7
  br label %40

40:                                               ; preds = %39
  br label %41

41:                                               ; preds = %40
  call void @llvm.lifetime.start.p0(i64 4, ptr %9) #7
  %42 = load ptr, ptr %7, align 8, !tbaa !52
  %43 = load i32, ptr %4, align 4, !tbaa !6
  %44 = call i32 @sqlite3_bind_int(ptr noundef %42, i32 noundef 1, i32 noundef %43)
  store i32 %44, ptr %9, align 4, !tbaa !6
  %45 = load i32, ptr %9, align 4, !tbaa !6
  %46 = icmp ne i32 %45, 0
  br i1 %46, label %47, label %53

47:                                               ; preds = %41
  %48 = load ptr, ptr @stderr, align 8, !tbaa !50
  %49 = load ptr, ptr getelementptr inbounds nuw (%struct.darktable_t, ptr @darktable, i32 0, i32 18), align 8, !tbaa !10
  %50 = call ptr @dt_database_get(ptr noundef %49)
  %51 = call ptr @sqlite3_errmsg(ptr noundef %50)
  %52 = call i32 (ptr, ptr, ...) @fprintf(ptr noundef %48, ptr noundef @.str.4, ptr noundef @.str.1, i32 noundef 134, ptr noundef @__FUNCTION__.dt_history_snapshot_undo_create, ptr noundef %51) #7
  br label %53

53:                                               ; preds = %47, %41
  call void @llvm.lifetime.end.p0(i64 4, ptr %9) #7
  %54 = load ptr, ptr %7, align 8, !tbaa !52
  %55 = call i32 @sqlite3_step(ptr noundef %54)
  %56 = icmp eq i32 %55, 100
  br i1 %56, label %57, label %62

57:                                               ; preds = %53
  %58 = load ptr, ptr %7, align 8, !tbaa !52
  %59 = call i32 @sqlite3_column_int(ptr noundef %58, i32 noundef 0)
  %60 = add nsw i32 %59, 1
  %61 = load ptr, ptr %5, align 8, !tbaa !54
  store i32 %60, ptr %61, align 4, !tbaa !6
  br label %62

62:                                               ; preds = %57, %53
  %63 = load ptr, ptr %7, align 8, !tbaa !52
  %64 = call i32 @sqlite3_finalize(ptr noundef %63)
  %65 = load ptr, ptr %6, align 8, !tbaa !54
  store i32 0, ptr %65, align 4, !tbaa !6
  br label %66

66:                                               ; preds = %62
  br label %67

67:                                               ; preds = %66
  %68 = load i32, ptr getelementptr inbounds nuw (%struct.darktable_t, ptr @darktable, i32 0, i32 2), align 8, !tbaa !49
  %69 = and i32 256, %68
  %70 = icmp ne i32 %69, 0
  br i1 %70, label %71, label %77

71:                                               ; preds = %67
  %72 = load i32, ptr getelementptr inbounds nuw (%struct.darktable_t, ptr @darktable, i32 0, i32 2), align 8, !tbaa !49
  %73 = xor i32 %72, -1
  %74 = and i32 0, %73
  %75 = icmp ne i32 %74, 0
  br i1 %75, label %77, label %76

76:                                               ; preds = %71
  call void (ptr, ...) @dt_print_ext(ptr noundef @.str, ptr noundef @.str.1, i32 noundef 145, ptr noundef @__FUNCTION__.dt_history_snapshot_undo_create, ptr noundef @.str.10)
  br label %77

77:                                               ; preds = %76, %71, %67
  br label %78

78:                                               ; preds = %77
  br label %79

79:                                               ; preds = %78
  call void @llvm.lifetime.start.p0(i64 4, ptr %10) #7
  %80 = load ptr, ptr getelementptr inbounds nuw (%struct.darktable_t, ptr @darktable, i32 0, i32 18), align 8, !tbaa !10
  %81 = call ptr @dt_database_get(ptr noundef %80)
  %82 = call i32 @sqlite3_prepare_v2(ptr noundef %81, ptr noundef @.str.10, i32 noundef -1, ptr noundef %7, ptr noundef null)
  store i32 %82, ptr %10, align 4, !tbaa !6
  %83 = load i32, ptr %10, align 4, !tbaa !6
  %84 = icmp ne i32 %83, 0
  br i1 %84, label %85, label %91

85:                                               ; preds = %79
  %86 = load ptr, ptr @stderr, align 8, !tbaa !50
  %87 = load ptr, ptr getelementptr inbounds nuw (%struct.darktable_t, ptr @darktable, i32 0, i32 18), align 8, !tbaa !10
  %88 = call ptr @dt_database_get(ptr noundef %87)
  %89 = call ptr @sqlite3_errmsg(ptr noundef %88)
  %90 = call i32 (ptr, ptr, ...) @fprintf(ptr noundef %86, ptr noundef @.str.3, ptr noundef @.str.1, i32 noundef 145, ptr noundef @__FUNCTION__.dt_history_snapshot_undo_create, ptr noundef @.str.10, ptr noundef %89) #7
  br label %91

91:                                               ; preds = %85, %79
  call void @llvm.lifetime.end.p0(i64 4, ptr %10) #7
  br label %92

92:                                               ; preds = %91
  br label %93

93:                                               ; preds = %92
  call void @llvm.lifetime.start.p0(i64 4, ptr %11) #7
  %94 = load ptr, ptr %7, align 8, !tbaa !52
  %95 = load i32, ptr %4, align 4, !tbaa !6
  %96 = call i32 @sqlite3_bind_int(ptr noundef %94, i32 noundef 1, i32 noundef %95)
  store i32 %96, ptr %11, align 4, !tbaa !6
  %97 = load i32, ptr %11, align 4, !tbaa !6
  %98 = icmp ne i32 %97, 0
  br i1 %98, label %99, label %105

99:                                               ; preds = %93
  %100 = load ptr, ptr @stderr, align 8, !tbaa !50
  %101 = load ptr, ptr getelementptr inbounds nuw (%struct.darktable_t, ptr @darktable, i32 0, i32 18), align 8, !tbaa !10
  %102 = call ptr @dt_database_get(ptr noundef %101)
  %103 = call ptr @sqlite3_errmsg(ptr noundef %102)
  %104 = call i32 (ptr, ptr, ...) @fprintf(ptr noundef %100, ptr noundef @.str.4, ptr noundef @.str.1, i32 noundef 146, ptr noundef @__FUNCTION__.dt_history_snapshot_undo_create, ptr noundef %103) #7
  br label %105

105:                                              ; preds = %99, %93
  call void @llvm.lifetime.end.p0(i64 4, ptr %11) #7
  %106 = load ptr, ptr %7, align 8, !tbaa !52
  %107 = call i32 @sqlite3_step(ptr noundef %106)
  %108 = icmp eq i32 %107, 100
  br i1 %108, label %109, label %113

109:                                              ; preds = %105
  %110 = load ptr, ptr %7, align 8, !tbaa !52
  %111 = call i32 @sqlite3_column_int(ptr noundef %110, i32 noundef 0)
  %112 = load ptr, ptr %6, align 8, !tbaa !54
  store i32 %111, ptr %112, align 4, !tbaa !6
  br label %113

113:                                              ; preds = %109, %105
  %114 = load ptr, ptr %7, align 8, !tbaa !52
  %115 = call i32 @sqlite3_finalize(ptr noundef %114)
  %116 = load i32, ptr %4, align 4, !tbaa !6
  %117 = load ptr, ptr %5, align 8, !tbaa !54
  %118 = load i32, ptr %117, align 4, !tbaa !6
  %119 = load ptr, ptr %6, align 8, !tbaa !54
  %120 = load i32, ptr %119, align 4, !tbaa !6
  call void @dt_history_snapshot_create(i32 noundef %116, i32 noundef %118, i32 noundef %120)
  %121 = load i32, ptr %4, align 4, !tbaa !6
  call void @dt_unlock_image(i32 noundef %121)
  call void @llvm.lifetime.end.p0(i64 8, ptr %7) #7
  ret void
}