; Function Attrs: nounwind uwtable
define void @dt_history_snapshot_undo_create(i32 noundef %0, ptr noundef captures(none) initializes((0, 4)) %1, ptr noundef captures(none) initializes((0, 4)) %2) local_unnamed_addr #0 {
  %4 = alloca ptr, align 8
  call void @llvm.lifetime.start.p0(i64 8, ptr nonnull %4) #7
  %5 = and i32 %0, 63
  %6 = zext nneg i32 %5 to i64
  %7 = getelementptr inbounds nuw [64 x %struct.dt_pthread_mutex_t], ptr getelementptr inbounds nuw (i8, ptr @darktable, i64 232), i64 0, i64 %6
  %8 = tail call i32 @pthread_mutex_lock(ptr noundef nonnull %7) #7
  store i32 0, ptr %1, align 4, !tbaa !53
  %9 = load i32, ptr getelementptr inbounds nuw (i8, ptr @darktable, i64 8), align 8, !tbaa !48
  %10 = and i32 %9, 256
  %.not = icmp eq i32 %10, 0
  br i1 %.not, label %12, label %11

11:                                               ; preds = %3
  tail call void (ptr, ...) @dt_print_ext(ptr noundef nonnull @.str, ptr noundef nonnull @.str.1, i32 noundef 133, ptr noundef nonnull @__FUNCTION__.dt_history_snapshot_undo_create, ptr noundef nonnull @.str.9) #7
  br label %12

12:                                               ; preds = %11, %3
  %13 = load ptr, ptr getelementptr inbounds nuw (i8, ptr @darktable, i64 136), align 8, !tbaa !6
  %14 = tail call ptr @dt_database_get(ptr noundef %13) #7
  %15 = call i32 @sqlite3_prepare_v2(ptr noundef %14, ptr noundef nonnull @.str.9, i32 noundef -1, ptr noundef nonnull %4, ptr noundef null) #7
  %.not14 = icmp eq i32 %15, 0
  br i1 %.not14, label %22, label %16

16:                                               ; preds = %12
  %17 = load ptr, ptr @stderr, align 8, !tbaa !49
  %18 = load ptr, ptr getelementptr inbounds nuw (i8, ptr @darktable, i64 136), align 8, !tbaa !6
  %19 = call ptr @dt_database_get(ptr noundef %18) #7
  %20 = call ptr @sqlite3_errmsg(ptr noundef %19) #7
  %21 = call i32 (ptr, ptr, ...) @fprintf(ptr noundef %17, ptr noundef nonnull @.str.3, ptr noundef nonnull @.str.1, i32 noundef 133, ptr noundef nonnull @__FUNCTION__.dt_history_snapshot_undo_create, ptr noundef nonnull @.str.9, ptr noundef %20) #8
  br label %22

22:                                               ; preds = %16, %12
  %23 = load ptr, ptr %4, align 8, !tbaa !51
  %24 = call i32 @sqlite3_bind_int(ptr noundef %23, i32 noundef 1, i32 noundef %0) #7
  %.not15 = icmp eq i32 %24, 0
  br i1 %.not15, label %31, label %25

25:                                               ; preds = %22
  %26 = load ptr, ptr @stderr, align 8, !tbaa !49
  %27 = load ptr, ptr getelementptr inbounds nuw (i8, ptr @darktable, i64 136), align 8, !tbaa !6
  %28 = call ptr @dt_database_get(ptr noundef %27) #7
  %29 = call ptr @sqlite3_errmsg(ptr noundef %28) #7
  %30 = call i32 (ptr, ptr, ...) @fprintf(ptr noundef %26, ptr noundef nonnull @.str.4, ptr noundef nonnull @.str.1, i32 noundef 134, ptr noundef nonnull @__FUNCTION__.dt_history_snapshot_undo_create, ptr noundef %29) #8
  br label %31

31:                                               ; preds = %25, %22
  %32 = load ptr, ptr %4, align 8, !tbaa !51
  %33 = call i32 @sqlite3_step(ptr noundef %32) #7
  %34 = icmp eq i32 %33, 100
  br i1 %34, label %35, label %39

35:                                               ; preds = %31
  %36 = load ptr, ptr %4, align 8, !tbaa !51
  %37 = call i32 @sqlite3_column_int(ptr noundef %36, i32 noundef 0) #7
  %38 = add nsw i32 %37, 1
  store i32 %38, ptr %1, align 4, !tbaa !53
  br label %39

39:                                               ; preds = %35, %31
  %40 = load ptr, ptr %4, align 8, !tbaa !51
  %41 = call i32 @sqlite3_finalize(ptr noundef %40) #7
  store i32 0, ptr %2, align 4, !tbaa !53
  %42 = load i32, ptr getelementptr inbounds nuw (i8, ptr @darktable, i64 8), align 8, !tbaa !48
  %43 = and i32 %42, 256
  %.not16 = icmp eq i32 %43, 0
  br i1 %.not16, label %45, label %44

44:                                               ; preds = %39
  call void (ptr, ...) @dt_print_ext(ptr noundef nonnull @.str, ptr noundef nonnull @.str.1, i32 noundef 145, ptr noundef nonnull @__FUNCTION__.dt_history_snapshot_undo_create, ptr noundef nonnull @.str.10) #7
  br label %45

45:                                               ; preds = %44, %39
  %46 = load ptr, ptr getelementptr inbounds nuw (i8, ptr @darktable, i64 136), align 8, !tbaa !6
  %47 = call ptr @dt_database_get(ptr noundef %46) #7
  %48 = call i32 @sqlite3_prepare_v2(ptr noundef %47, ptr noundef nonnull @.str.10, i32 noundef -1, ptr noundef nonnull %4, ptr noundef null) #7
  %.not17 = icmp eq i32 %48, 0
  br i1 %.not17, label %55, label %49

49:                                               ; preds = %45
  %50 = load ptr, ptr @stderr, align 8, !tbaa !49
  %51 = load ptr, ptr getelementptr inbounds nuw (i8, ptr @darktable, i64 136), align 8, !tbaa !6
  %52 = call ptr @dt_database_get(ptr noundef %51) #7
  %53 = call ptr @sqlite3_errmsg(ptr noundef %52) #7
  %54 = call i32 (ptr, ptr, ...) @fprintf(ptr noundef %50, ptr noundef nonnull @.str.3, ptr noundef nonnull @.str.1, i32 noundef 145, ptr noundef nonnull @__FUNCTION__.dt_history_snapshot_undo_create, ptr noundef nonnull @.str.10, ptr noundef %53) #8
  br label %55

55:                                               ; preds = %49, %45
  %56 = load ptr, ptr %4, align 8, !tbaa !51
  %57 = call i32 @sqlite3_bind_int(ptr noundef %56, i32 noundef 1, i32 noundef %0) #7
  %.not18 = icmp eq i32 %57, 0
  br i1 %.not18, label %64, label %58

58:                                               ; preds = %55
  %59 = load ptr, ptr @stderr, align 8, !tbaa !49
  %60 = load ptr, ptr getelementptr inbounds nuw (i8, ptr @darktable, i64 136), align 8, !tbaa !6
  %61 = call ptr @dt_database_get(ptr noundef %60) #7
  %62 = call ptr @sqlite3_errmsg(ptr noundef %61) #7
  %63 = call i32 (ptr, ptr, ...) @fprintf(ptr noundef %59, ptr noundef nonnull @.str.4, ptr noundef nonnull @.str.1, i32 noundef 146, ptr noundef nonnull @__FUNCTION__.dt_history_snapshot_undo_create, ptr noundef %62) #8
  br label %64

64:                                               ; preds = %58, %55
  %65 = load ptr, ptr %4, align 8, !tbaa !51
  %66 = call i32 @sqlite3_step(ptr noundef %65) #7
  %67 = icmp eq i32 %66, 100
  br i1 %67, label %68, label %71

68:                                               ; preds = %64
  %69 = load ptr, ptr %4, align 8, !tbaa !51
  %70 = call i32 @sqlite3_column_int(ptr noundef %69, i32 noundef 0) #7
  store i32 %70, ptr %2, align 4, !tbaa !53
  br label %71

71:                                               ; preds = %68, %64
  %72 = load ptr, ptr %4, align 8, !tbaa !51
  %73 = call i32 @sqlite3_finalize(ptr noundef %72) #7
  %74 = load i32, ptr %1, align 4, !tbaa !53
  %75 = load i32, ptr %2, align 4, !tbaa !53
  call void @dt_history_snapshot_create(i32 noundef %0, i32 noundef %74, i32 noundef %75)
  %76 = call i32 @pthread_mutex_unlock(ptr noundef nonnull %7) #7
  call void @llvm.lifetime.end.p0(i64 8, ptr nonnull %4) #7
  ret void
}